; Function Attrs: mustprogress uwtable
define hidden noundef zeroext i1 @_ZN4cvc58internal4expr16containsSubproofEPNS0_9ProofNodeES3_(ptr noundef %pn, ptr noundef %pnc) local_unnamed_addr #3 personality ptr @__gxx_personality_v0 {
entry:
  %visited = alloca %"class.std::unordered_set.85", align 8
  %_M_single_bucket.i.i = getelementptr inbounds i8, ptr %visited, i64 48
  store ptr %_M_single_bucket.i.i, ptr %visited, align 8
  %_M_bucket_count.i.i = getelementptr inbounds i8, ptr %visited, i64 8
  store i64 1, ptr %_M_bucket_count.i.i, align 8
  %_M_before_begin.i.i = getelementptr inbounds i8, ptr %visited, i64 16
  %_M_rehash_policy.i.i = getelementptr inbounds i8, ptr %visited, i64 32
  call void @llvm.memset.p0.i64(ptr noundef nonnull align 8 dereferenceable(16) %_M_before_begin.i.i, i8 0, i64 16, i1 false)
  store float 1.000000e+00, ptr %_M_rehash_policy.i.i, align 8
  %_M_next_resize.i.i.i = getelementptr inbounds i8, ptr %visited, i64 40
  call void @llvm.memset.p0.i64(ptr noundef nonnull align 8 dereferenceable(16) %_M_next_resize.i.i.i, i8 0, i64 16, i1 false)
  %call = invoke noundef zeroext i1 @_ZN4cvc58internal4expr16containsSubproofEPNS0_9ProofNodeES3_RSt13unordered_setIPKS2_St4hashIS6_ESt8equal_toIS6_ESaIS6_EE(ptr noundef %pn, ptr noundef %pnc, ptr noundef nonnull align 8 dereferenceable(56) %visited)
          to label %invoke.cont unwind label %lpad

invoke.cont:                                      ; preds = %entry
  %0 = load ptr, ptr %_M_before_begin.i.i, align 8
  %tobool.not3.i.i.i.i = icmp eq ptr %0, null
  br i1 %tobool.not3.i.i.i.i, label %_ZNSt10_HashtableIPKN4cvc58internal9ProofNodeES4_SaIS4_ENSt8__detail9_IdentityESt8equal_toIS4_ESt4hashIS4_ENS6_18_Mod_range_hashingENS6_20_Default_ranged_hashENS6_20_Prime_rehash_policyENS6_17_Hashtable_traitsILb0ELb1ELb1EEEE5clearEv.exit.i.i, label %while.body.i.i.i.i

while.body.i.i.i.i:                               ; preds = %invoke.cont, %while.body.i.i.i.i
  %__n.addr.04.i.i.i.i = phi ptr [ %1, %while.body.i.i.i.i ], [ %0, %invoke.cont ]
  %1 = load ptr, ptr %__n.addr.04.i.i.i.i, align 8
  call void @_ZdlPv(ptr noundef nonnull %__n.addr.04.i.i.i.i) #20
  %tobool.not.i.i.i.i = icmp eq ptr %1, null
  br i1 %tobool.not.i.i.i.i, label %_ZNSt10_HashtableIPKN4cvc58internal9ProofNodeES4_SaIS4_ENSt8__detail9_IdentityESt8equal_toIS4_ESt4hashIS4_ENS6_18_Mod_range_hashingENS6_20_Default_ranged_hashENS6_20_Prime_rehash_policyENS6_17_Hashtable_traitsILb0ELb1ELb1EEEE5clearEv.exit.i.i, label %while.body.i.i.i.i, !llvm.loop !34

_ZNSt10_HashtableIPKN4cvc58internal9ProofNodeES4_SaIS4_ENSt8__detail9_IdentityESt8equal_toIS4_ESt4hashIS4_ENS6_18_Mod_range_hashingENS6_20_Default_ranged_hashENS6_20_Prime_rehash_policyENS6_17_Hashtable_traitsILb0ELb1ELb1EEEE5clearEv.exit.i.i: ; preds = %while.body.i.i.i.i, %invoke.cont
  %2 = load ptr, ptr %visited, align 8
  %3 = load i64, ptr %_M_bucket_count.i.i, align 8
  %mul.i.i.i = shl i64 %3, 3
  call void @llvm.memset.p0.i64(ptr align 8 %2, i8 0, i64 %mul.i.i.i, i1 false)
  call void @llvm.memset.p0.i64(ptr noundef nonnull align 8 dereferenceable(16) %_M_before_begin.i.i, i8 0, i64 16, i1 false)
  %4 = load ptr, ptr %visited, align 8
  %cmp.i.i.i.i.i = icmp eq ptr %_M_single_bucket.i.i, %4
  br i1 %cmp.i.i.i.i.i, label %_ZNSt13unordered_setIPKN4cvc58internal9ProofNodeESt4hashIS4_ESt8equal_toIS4_ESaIS4_EED2Ev.exit, label %if.end.i.i.i.i

if.end.i.i.i.i:                                   ; preds = %_ZNSt10_HashtableIPKN4cvc58internal9ProofNodeES4_SaIS4_ENSt8__detail9_IdentityESt8equal_toIS4_ESt4hashIS4_ENS6_18_Mod_range_hashingENS6_20_Default_ranged_hashENS6_20_Prime_rehash_policyENS6_17_Hashtable_traitsILb0ELb1ELb1EEEE5clearEv.exit.i.i
  call void @_ZdlPv(ptr noundef %4) #20
  br label %_ZNSt13unordered_setIPKN4cvc58internal9ProofNodeESt4hashIS4_ESt8equal_toIS4_ESaIS4_EED2Ev.exit

_ZNSt13unordered_setIPKN4cvc58internal9ProofNodeESt4hashIS4_ESt8equal_toIS4_ESaIS4_EED2Ev.exit: ; preds = %_ZNSt10_HashtableIPKN4cvc58internal9ProofNodeES4_SaIS4_ENSt8__detail9_IdentityESt8equal_toIS4_ESt4hashIS4_ENS6_18_Mod_range_hashingENS6_20_Default_ranged_hashENS6_20_Prime_rehash_policyENS6_17_Hashtable_traitsILb0ELb1ELb1EEEE5clearEv.exit.i.i, %if.end.i.i.i.i
  ret i1 %call

lpad:                                             ; preds = %entry
  %5 = landingpad { ptr, i32 }
          cleanup
  call void @_ZNSt13unordered_setIPKN4cvc58internal9ProofNodeESt4hashIS4_ESt8equal_toIS4_ESaIS4_EED2Ev(ptr noundef nonnull align 8 dereferenceable(56) %visited) #21
  resume { ptr, i32 } %5
}